; ModuleID = '5/854.c'
source_filename = "5/854.c"
target datalayout = "e-m:e-p270:32:32-p271:32:32-p272:64:64-i64:64-f80:128-n8:16:32:64-S128"
target triple = "x86_64-pc-linux-gnu"

@.str = private unnamed_addr constant [11 x i8] c"%lf\0A%s\0A%s\0A\00", align 1
@.str.1 = private unnamed_addr constant [6 x i8] c"error\00", align 1
@.str.2 = private unnamed_addr constant [4 x i8] c"yes\00", align 1
@.str.3 = private unnamed_addr constant [3 x i8] c"no\00", align 1

; Function Attrs: noinline nounwind uwtable
define dso_local i32 @main() #0 {
  %1 = alloca i32, align 4
  %2 = alloca double, align 8
  %3 = alloca double, align 8
  %4 = alloca [501 x i8], align 16
  %5 = alloca [501 x i8], align 16
  %6 = alloca i32, align 4
  %7 = alloca i32, align 4
  %8 = alloca i32, align 4
  %9 = alloca i32, align 4
  %10 = alloca i32, align 4
  %11 = alloca i32, align 4
  store i32 0, i32* %1, align 4
  store i32 0, i32* %10, align 4
  %12 = getelementptr inbounds [501 x i8], [501 x i8]* %4, i64 0, i64 0
  %13 = getelementptr inbounds [501 x i8], [501 x i8]* %5, i64 0, i64 0
  %14 = call i32 (i8*, ...) @__isoc99_scanf(i8* getelementptr inbounds ([11 x i8], [11 x i8]* @.str, i64 0, i64 0), double* %2, i8* %12, i8* %13)
  %15 = getelementptr inbounds [501 x i8], [501 x i8]* %4, i64 0, i64 0
  %16 = call i64 @strlen(i8* %15) #3
  %17 = trunc i64 %16 to i32
  store i32 %17, i32* %6, align 4
  %18 = getelementptr inbounds [501 x i8], [501 x i8]* %5, i64 0, i64 0
  %19 = call i64 @strlen(i8* %18) #3
  %20 = trunc i64 %19 to i32
  store i32 %20, i32* %7, align 4
  %21 = load i32, i32* %6, align 4
  %22 = load i32, i32* %7, align 4
  %23 = icmp ne i32 %21, %22
  br i1 %23, label %24, label %26

24:                                               ; preds = %0
  %25 = call i32 (i8*, ...) @printf(i8* getelementptr inbounds ([6 x i8], [6 x i8]* @.str.1, i64 0, i64 0))
  br label %135

26:                                               ; preds = %0
  %27 = load i32, i32* %6, align 4
  %28 = load i32, i32* %7, align 4
  %29 = icmp eq i32 %27, %28
  br i1 %29, label %30, label %134

30:                                               ; preds = %26
  store i32 0, i32* %8, align 4
  br label %31

31:                                               ; preds = %98, %30
  %32 = load i32, i32* %8, align 4
  %33 = load i32, i32* %6, align 4
  %34 = sub nsw i32 %33, 1
  %35 = icmp slt i32 %32, %34
  br i1 %35, label %36, label %101

36:                                               ; preds = %31
  %37 = load i32, i32* %8, align 4
  %38 = sext i32 %37 to i64
  %39 = getelementptr inbounds [501 x i8], [501 x i8]* %4, i64 0, i64 %38
  %40 = load i8, i8* %39, align 1
  %41 = sext i8 %40 to i32
  %42 = icmp ne i32 %41, 65
  br i1 %42, label %43, label %65

43:                                               ; preds = %36
  %44 = load i32, i32* %8, align 4
  %45 = sext i32 %44 to i64
  %46 = getelementptr inbounds [501 x i8], [501 x i8]* %4, i64 0, i64 %45
  %47 = load i8, i8* %46, align 1
  %48 = sext i8 %47 to i32
  %49 = icmp ne i32 %48, 71
  br i1 %49, label %50, label %65

50:                                               ; preds = %43
  %51 = load i32, i32* %8, align 4
  %52 = sext i32 %51 to i64
  %53 = getelementptr inbounds [501 x i8], [501 x i8]* %4, i64 0, i64 %52
  %54 = load i8, i8* %53, align 1
  %55 = sext i8 %54 to i32
  %56 = icmp ne i32 %55, 67
  br i1 %56, label %57, label %65

57:                                               ; preds = %50
  %58 = load i32, i32* %8, align 4
  %59 = sext i32 %58 to i64
  %60 = getelementptr inbounds [501 x i8], [501 x i8]* %4, i64 0, i64 %59
  %61 = load i8, i8* %60, align 1
  %62 = sext i8 %61 to i32
  %63 = icmp ne i32 %62, 84
  br i1 %63, label %64, label %65

64:                                               ; preds = %57
  store i32 0, i32* %11, align 4
  br label %101

65:                                               ; preds = %57, %50, %43, %36
  %66 = load i32, i32* %8, align 4
  %67 = sext i32 %66 to i64
  %68 = getelementptr inbounds [501 x i8], [501 x i8]* %4, i64 0, i64 %67
  %69 = load i8, i8* %68, align 1
  %70 = sext i8 %69 to i32
  %71 = load i32, i32* %8, align 4
  %72 = sext i32 %71 to i64
  %73 = getelementptr inbounds [501 x i8], [501 x i8]* %5, i64 0, i64 %72
  %74 = load i8, i8* %73, align 1
  %75 = sext i8 %74 to i32
  %76 = icmp eq i32 %70, %75
  br i1 %76, label %77, label %80

77:                                               ; preds = %65
  %78 = load i32, i32* %10, align 4
  %79 = add nsw i32 %78, 1
  store i32 %79, i32* %10, align 4
  br label %96

80:                                               ; preds = %65
  %81 = load i32, i32* %8, align 4
  %82 = sext i32 %81 to i64
  %83 = getelementptr inbounds [501 x i8], [501 x i8]* %4, i64 0, i64 %82
  %84 = load i8, i8* %83, align 1
  %85 = sext i8 %84 to i32
  %86 = load i32, i32* %8, align 4
  %87 = sext i32 %86 to i64
  %88 = getelementptr inbounds [501 x i8], [501 x i8]* %5, i64 0, i64 %87
  %89 = load i8, i8* %88, align 1
  %90 = sext i8 %89 to i32
  %91 = icmp ne i32 %85, %90
  br i1 %91, label %92, label %95

92:                                               ; preds = %80
  %93 = load i32, i32* %10, align 4
  %94 = add nsw i32 %93, 0
  store i32 %94, i32* %10, align 4
  br label %95

95:                                               ; preds = %92, %80
  br label %96

96:                                               ; preds = %95, %77
  br label %97

97:                                               ; preds = %96
  br label %98

98:                                               ; preds = %97
  %99 = load i32, i32* %8, align 4
  %100 = add nsw i32 %99, 1
  store i32 %100, i32* %8, align 4
  br label %31

101:                                              ; preds = %64, %31
  %102 = load i32, i32* %10, align 4
  %103 = sitofp i32 %102 to double
  %104 = fmul double 1.000000e+00, %103
  %105 = load i32, i32* %6, align 4
  %106 = sub nsw i32 %105, 1
  %107 = sitofp i32 %106 to double
  %108 = fdiv double %104, %107
  store double %108, double* %3, align 8
  %109 = load double, double* %3, align 8
  %110 = load double, double* %2, align 8
  %111 = fcmp ogt double %109, %110
  br i1 %111, label %112, label %117

112:                                              ; preds = %101
  %113 = load i32, i32* %11, align 4
  %114 = icmp ne i32 %113, 0
  br i1 %114, label %115, label %117

115:                                              ; preds = %112
  %116 = call i32 (i8*, ...) @printf(i8* getelementptr inbounds ([4 x i8], [4 x i8]* @.str.2, i64 0, i64 0))
  br label %133

117:                                              ; preds = %112, %101
  %118 = load double, double* %3, align 8
  %119 = load double, double* %2, align 8
  %120 = fcmp olt double %118, %119
  br i1 %120, label %121, label %126

121:                                              ; preds = %117
  %122 = load i32, i32* %11, align 4
  %123 = icmp ne i32 %122, 0
  br i1 %123, label %124, label %126

124:                                              ; preds = %121
  %125 = call i32 (i8*, ...) @printf(i8* getelementptr inbounds ([3 x i8], [3 x i8]* @.str.3, i64 0, i64 0))
  br label %132

126:                                              ; preds = %121, %117
  %127 = load i32, i32* %11, align 4
  %128 = icmp eq i32 %127, 0
  br i1 %128, label %129, label %131

129:                                              ; preds = %126
  %130 = call i32 (i8*, ...) @printf(i8* getelementptr inbounds ([6 x i8], [6 x i8]* @.str.1, i64 0, i64 0))
  br label %131

131:                                              ; preds = %129, %126
  br label %132

132:                                              ; preds = %131, %124
  br label %133

133:                                              ; preds = %132, %115
  br label %134

134:                                              ; preds = %133, %26
  br label %135

135:                                              ; preds = %134, %24
  ret i32 0
}

declare dso_local i32 @__isoc99_scanf(i8*, ...) #1

; Function Attrs: nounwind readonly
declare dso_local i64 @strlen(i8*) #2

declare dso_local i32 @printf(i8*, ...) #1


!llvm.module.flags = !{!0}
!llvm.ident = !{!1}

!0 = !{i32 1, !"wchar_size", i32 4}
!1 = !{!"clang version 10.0.0-4ubuntu1 "}
