; ModuleID = 'source-C-CXX/4/854.c'
source_filename = "source-C-CXX/4/854.c"
target datalayout = "e-m:e-p270:32:32-p271:32:32-p272:64:64-i64:64-f80:128-n8:16:32:64-S128"
target triple = "x86_64-pc-linux-gnu"

@.str = private unnamed_addr constant [11 x i8] c"%lf\0A%s\0A%s\0A\00", align 1
@.str.1 = private unnamed_addr constant [6 x i8] c"error\00", align 1

; Function Attrs: nofree nounwind sspstrong uwtable
define dso_local i32 @main() local_unnamed_addr #0 {
  %1 = alloca double, align 8
  %2 = alloca [501 x i8], align 16
  %3 = alloca [501 x i8], align 16
  %4 = bitcast double* %1 to i8*
  call void @llvm.lifetime.start.p0i8(i64 8, i8* nonnull %4) #3
  %5 = getelementptr inbounds [501 x i8], [501 x i8]* %2, i64 0, i64 0
  call void @llvm.lifetime.start.p0i8(i64 501, i8* nonnull %5) #3
  %6 = getelementptr inbounds [501 x i8], [501 x i8]* %3, i64 0, i64 0
  call void @llvm.lifetime.start.p0i8(i64 501, i8* nonnull %6) #3
  %7 = call i32 (i8*, ...) @__isoc99_scanf(i8* getelementptr inbounds ([11 x i8], [11 x i8]* @.str, i64 0, i64 0), double* nonnull %1, i8* nonnull %5, i8* nonnull %6)
  %8 = call i32 (i8*, ...) @printf(i8* nonnull dereferenceable(1) getelementptr inbounds ([6 x i8], [6 x i8]* @.str.1, i64 0, i64 0))
  call void @llvm.lifetime.end.p0i8(i64 501, i8* nonnull %6) #3
  call void @llvm.lifetime.end.p0i8(i64 501, i8* nonnull %5) #3
  call void @llvm.lifetime.end.p0i8(i64 8, i8* nonnull %4) #3
  ret i32 0
}

; Function Attrs: argmemonly mustprogress nofree nosync nounwind willreturn
declare void @llvm.lifetime.start.p0i8(i64 immarg, i8* nocapture) #1

; Function Attrs: nofree nounwind
declare noundef i32 @__isoc99_scanf(i8* nocapture noundef readonly, ...) local_unnamed_addr #2

; Function Attrs: nofree nounwind
declare noundef i32 @printf(i8* nocapture noundef readonly, ...) local_unnamed_addr #2

; Function Attrs: argmemonly mustprogress nofree nosync nounwind willreturn
declare void @llvm.lifetime.end.p0i8(i64 immarg, i8* nocapture) #1


!llvm.module.flags = !{!0, !1, !2, !3}
!llvm.ident = !{!4}

!0 = !{i32 1, !"wchar_size", i32 4}
!1 = !{i32 7, !"PIC Level", i32 2}
!2 = !{i32 7, !"PIE Level", i32 2}
!3 = !{i32 7, !"uwtable", i32 1}
!4 = !{!"clang version 13.0.0"}
